target datalayout = "e-m:e-p270:32:32-p271:32:32-p272:64:64-i64:64-i128:128-f80:128-n8:16:32:64-S128"
target triple = "x86_64-pc-linux-gnu"

%struct.ObjectAddress = type { i32, i32, i32 }
%struct.ObjectAddresses = type { ptr, ptr, i32, i32 }

; Function Attrs: nounwind uwtable
define internal void @eliminate_duplicate_dependencies(ptr noundef %0) #0 {
  %2 = alloca ptr, align 8
  %3 = alloca ptr, align 8
  %4 = alloca i32, align 4
  %5 = alloca i32, align 4
  %6 = alloca i32, align 4
  %7 = alloca ptr, align 8
  store ptr %0, ptr %2, align 8
  call void @llvm.lifetime.start.p0(i64 8, ptr %3) #8
  call void @llvm.lifetime.start.p0(i64 4, ptr %4) #8
  call void @llvm.lifetime.start.p0(i64 4, ptr %5) #8
  %8 = load ptr, ptr %2, align 8
  %9 = getelementptr inbounds nuw %struct.ObjectAddresses, ptr %8, i32 0, i32 2
  %10 = load i32, ptr %9, align 8
  %11 = icmp sle i32 %10, 1
  br i1 %11, label %12, label %13

12:                                               ; preds = %1
  store i32 1, ptr %6, align 4
  br label %90

13:                                               ; preds = %1
  %14 = load ptr, ptr %2, align 8
  %15 = getelementptr inbounds nuw %struct.ObjectAddresses, ptr %14, i32 0, i32 0
  %16 = load ptr, ptr %15, align 8
  %17 = load ptr, ptr %2, align 8
  %18 = getelementptr inbounds nuw %struct.ObjectAddresses, ptr %17, i32 0, i32 2
  %19 = load i32, ptr %18, align 8
  %20 = sext i32 %19 to i64
  call void @pg_qsort(ptr noundef %16, i64 noundef %20, i64 noundef 12, ptr noundef @object_address_comparator)
  %21 = load ptr, ptr %2, align 8
  %22 = getelementptr inbounds nuw %struct.ObjectAddresses, ptr %21, i32 0, i32 0
  %23 = load ptr, ptr %22, align 8
  store ptr %23, ptr %3, align 8
  store i32 1, ptr %5, align 4
  store i32 1, ptr %4, align 4
  br label %24

24:                                               ; preds = %83, %13
  %25 = load i32, ptr %4, align 4
  %26 = load ptr, ptr %2, align 8
  %27 = getelementptr inbounds nuw %struct.ObjectAddresses, ptr %26, i32 0, i32 2
  %28 = load i32, ptr %27, align 8
  %29 = icmp slt i32 %25, %28
  br i1 %29, label %30, label %86

30:                                               ; preds = %24
  call void @llvm.lifetime.start.p0(i64 8, ptr %7) #8
  %31 = load ptr, ptr %2, align 8
  %32 = getelementptr inbounds nuw %struct.ObjectAddresses, ptr %31, i32 0, i32 0
  %33 = load ptr, ptr %32, align 8
  %34 = load i32, ptr %4, align 4
  %35 = sext i32 %34 to i64
  %36 = getelementptr inbounds %struct.ObjectAddress, ptr %33, i64 %35
  store ptr %36, ptr %7, align 8
  %37 = load ptr, ptr %3, align 8
  %38 = getelementptr inbounds nuw %struct.ObjectAddress, ptr %37, i32 0, i32 0
  %39 = load i32, ptr %38, align 4
  %40 = load ptr, ptr %7, align 8
  %41 = getelementptr inbounds nuw %struct.ObjectAddress, ptr %40, i32 0, i32 0
  %42 = load i32, ptr %41, align 4
  %43 = icmp eq i32 %39, %42
  br i1 %43, label %44, label %73

44:                                               ; preds = %30
  %45 = load ptr, ptr %3, align 8
  %46 = getelementptr inbounds nuw %struct.ObjectAddress, ptr %45, i32 0, i32 1
  %47 = load i32, ptr %46, align 4
  %48 = load ptr, ptr %7, align 8
  %49 = getelementptr inbounds nuw %struct.ObjectAddress, ptr %48, i32 0, i32 1
  %50 = load i32, ptr %49, align 4
  %51 = icmp eq i32 %47, %50
  br i1 %51, label %52, label %73

52:                                               ; preds = %44
  %53 = load ptr, ptr %3, align 8
  %54 = getelementptr inbounds nuw %struct.ObjectAddress, ptr %53, i32 0, i32 2
  %55 = load i32, ptr %54, align 4
  %56 = load ptr, ptr %7, align 8
  %57 = getelementptr inbounds nuw %struct.ObjectAddress, ptr %56, i32 0, i32 2
  %58 = load i32, ptr %57, align 4
  %59 = icmp eq i32 %55, %58
  br i1 %59, label %60, label %61

60:                                               ; preds = %52
  store i32 4, ptr %6, align 4
  br label %80

61:                                               ; preds = %52
  %62 = load ptr, ptr %3, align 8
  %63 = getelementptr inbounds nuw %struct.ObjectAddress, ptr %62, i32 0, i32 2
  %64 = load i32, ptr %63, align 4
  %65 = icmp eq i32 %64, 0
  br i1 %65, label %66, label %72

66:                                               ; preds = %61
  %67 = load ptr, ptr %7, align 8
  %68 = getelementptr inbounds nuw %struct.ObjectAddress, ptr %67, i32 0, i32 2
  %69 = load i32, ptr %68, align 4
  %70 = load ptr, ptr %3, align 8
  %71 = getelementptr inbounds nuw %struct.ObjectAddress, ptr %70, i32 0, i32 2
  store i32 %69, ptr %71, align 4
  store i32 4, ptr %6, align 4
  br label %80

72:                                               ; preds = %61
  br label %73

73:                                               ; preds = %72, %44, %30
  %74 = load ptr, ptr %3, align 8
  %75 = getelementptr inbounds nuw %struct.ObjectAddress, ptr %74, i32 1
  store ptr %75, ptr %3, align 8
  %76 = load ptr, ptr %3, align 8
  %77 = load ptr, ptr %7, align 8
  call void @llvm.memcpy.p0.p0.i64(ptr align 4 %76, ptr align 4 %77, i64 12, i1 false)
  %78 = load i32, ptr %5, align 4
  %79 = add i32 %78, 1
  store i32 %79, ptr %5, align 4
  store i32 0, ptr %6, align 4
  br label %80

80:                                               ; preds = %73, %66, %60
  call void @llvm.lifetime.end.p0(i64 8, ptr %7) #8
  %81 = load i32, ptr %6, align 4
  switch i32 %81, label %93 [
    i32 0, label %82
    i32 4, label %83
  ]

82:                                               ; preds = %80
  br label %83

83:                                               ; preds = %82, %80
  %84 = load i32, ptr %4, align 4
  %85 = add i32 %84, 1
  store i32 %85, ptr %4, align 4
  br label %24, !llvm.loop !26

86:                                               ; preds = %24
  %87 = load i32, ptr %5, align 4
  %88 = load ptr, ptr %2, align 8
  %89 = getelementptr inbounds nuw %struct.ObjectAddresses, ptr %88, i32 0, i32 2
  store i32 %87, ptr %89, align 8
  store i32 0, ptr %6, align 4
  br label %90

90:                                               ; preds = %86, %12
  call void @llvm.lifetime.end.p0(i64 4, ptr %5) #8
  call void @llvm.lifetime.end.p0(i64 4, ptr %4) #8
  call void @llvm.lifetime.end.p0(i64 8, ptr %3) #8
  %91 = load i32, ptr %6, align 4
  switch i32 %91, label %93 [
    i32 0, label %92
    i32 1, label %92
  ]

92:                                               ; preds = %90, %90
  ret void

93:                                               ; preds = %90, %80
  unreachable
}

; Function Attrs: nounwind uwtable
define dso_local void @record_object_address_dependencies(ptr noundef %0, ptr noundef %1, i32 noundef %2) #0 {
  %4 = alloca ptr, align 8
  %5 = alloca ptr, align 8
  %6 = alloca i32, align 4
  store ptr %0, ptr %4, align 8
  store ptr %1, ptr %5, align 8
  store i32 %2, ptr %6, align 4
  %7 = load ptr, ptr %5, align 8
  call void @eliminate_duplicate_dependencies(ptr noundef %7)
  %8 = load ptr, ptr %4, align 8
  %9 = load ptr, ptr %5, align 8
  %10 = getelementptr inbounds nuw %struct.ObjectAddresses, ptr %9, i32 0, i32 0
  %11 = load ptr, ptr %10, align 8
  %12 = load ptr, ptr %5, align 8
  %13 = getelementptr inbounds nuw %struct.ObjectAddresses, ptr %12, i32 0, i32 2
  %14 = load i32, ptr %13, align 8
  %15 = load i32, ptr %6, align 4
  call void @recordMultipleDependencies(ptr noundef %8, ptr noundef %11, i32 noundef %14, i32 noundef %15)
  ret void
}