; Function Attrs: nounwind uwtable
define dso_local void @record_object_address_dependencies(ptr noundef %0, ptr noundef captures(none) %1, i32 noundef %2) local_unnamed_addr #0 {
  %4 = getelementptr inbounds nuw i8, ptr %1, i64 16
  %5 = load i32, ptr %4, align 8
  %6 = icmp slt i32 %5, 2
  %.pre4 = load ptr, ptr %1, align 8
  br i1 %6, label %eliminate_duplicate_dependencies.exit, label %7

7:                                                ; preds = %3
  %8 = zext nneg i32 %5 to i64
  tail call void @pg_qsort(ptr noundef %.pre4, i64 noundef %8, i64 noundef 12, ptr noundef nonnull @object_address_comparator) #9
  %9 = load i32, ptr %4, align 8
  %10 = icmp sgt i32 %9, 1
  %.pre.pre5 = load ptr, ptr %1, align 8
  br i1 %10, label %.lr.ph.i, label %._crit_edge.i

.lr.ph.i:                                         ; preds = %7, %34
  %indvars.iv.i = phi i64 [ %indvars.iv.next.i, %34 ], [ 1, %7 ]
  %.031.i = phi ptr [ %.1.i, %34 ], [ %.pre.pre5, %7 ]
  %.02330.i = phi i32 [ %.124.i, %34 ], [ 1, %7 ]
  %11 = load ptr, ptr %1, align 8
  %12 = getelementptr inbounds nuw %struct.ObjectAddress, ptr %11, i64 %indvars.iv.i
  %13 = load i32, ptr %.031.i, align 4
  %14 = load i32, ptr %12, align 4
  %15 = icmp eq i32 %13, %14
  br i1 %15, label %16, label %31

16:                                               ; preds = %.lr.ph.i
  %17 = getelementptr inbounds nuw i8, ptr %.031.i, i64 4
  %18 = load i32, ptr %17, align 4
  %19 = getelementptr inbounds nuw i8, ptr %12, i64 4
  %20 = load i32, ptr %19, align 4
  %21 = icmp eq i32 %18, %20
  br i1 %21, label %22, label %31

22:                                               ; preds = %16
  %23 = getelementptr inbounds nuw i8, ptr %.031.i, i64 8
  %24 = load i32, ptr %23, align 4
  %25 = getelementptr inbounds nuw i8, ptr %12, i64 8
  %26 = load i32, ptr %25, align 4
  %27 = icmp eq i32 %24, %26
  br i1 %27, label %34, label %28

28:                                               ; preds = %22
  %29 = icmp eq i32 %24, 0
  br i1 %29, label %30, label %31

30:                                               ; preds = %28
  store i32 %26, ptr %23, align 4
  br label %34

31:                                               ; preds = %28, %16, %.lr.ph.i
  %32 = getelementptr inbounds nuw i8, ptr %.031.i, i64 12
  tail call void @llvm.memcpy.p0.p0.i64(ptr noundef nonnull align 4 dereferenceable(12) %32, ptr noundef nonnull align 4 dereferenceable(12) %12, i64 12, i1 false)
  %33 = add i32 %.02330.i, 1
  br label %34

34:                                               ; preds = %31, %30, %22
  %.124.i = phi i32 [ %.02330.i, %30 ], [ %33, %31 ], [ %.02330.i, %22 ]
  %.1.i = phi ptr [ %.031.i, %30 ], [ %32, %31 ], [ %.031.i, %22 ]
  %indvars.iv.next.i = add nuw nsw i64 %indvars.iv.i, 1
  %35 = load i32, ptr %4, align 8
  %36 = sext i32 %35 to i64
  %37 = icmp slt i64 %indvars.iv.next.i, %36
  br i1 %37, label %.lr.ph.i, label %._crit_edge.i.loopexit, !llvm.loop !20

._crit_edge.i.loopexit:                           ; preds = %34
  %.pre.pre = load ptr, ptr %1, align 8
  br label %._crit_edge.i

._crit_edge.i:                                    ; preds = %._crit_edge.i.loopexit, %7
  %.pre = phi ptr [ %.pre.pre5, %7 ], [ %.pre.pre, %._crit_edge.i.loopexit ]
  %.023.lcssa.i = phi i32 [ 1, %7 ], [ %.124.i, %._crit_edge.i.loopexit ]
  store i32 %.023.lcssa.i, ptr %4, align 8
  br label %eliminate_duplicate_dependencies.exit

eliminate_duplicate_dependencies.exit:            ; preds = %3, %._crit_edge.i
  %38 = phi i32 [ %5, %3 ], [ %.023.lcssa.i, %._crit_edge.i ]
  %39 = phi ptr [ %.pre4, %3 ], [ %.pre, %._crit_edge.i ]
  tail call void @recordMultipleDependencies(ptr noundef %0, ptr noundef %39, i32 noundef %38, i32 noundef %2) #9
  ret void
}